target datalayout = "e-m:e-p270:32:32-p271:32:32-p272:64:64-i64:64-i128:128-f80:128-n8:16:32:64-S128"
target triple = "x86_64-pc-linux-gnu"

%class.JDK_Version = type { i32, i32, i32, i32, i32 }

@.str.16 = private unnamed_addr constant [2 x i8] c"#\00", align 1
@UseCompressedOops = external global i8, align 1
@UseCompressedClassPointers = external global i8, align 1
@.str.142 = private unnamed_addr constant [1 x i8] zeroinitializer, align 1
@.str.198 = private unnamed_addr constant [40 x i8] c"# JRE version: %s%s%s (%s) (%sbuild %s)\00", align 1
@.str.199 = private unnamed_addr constant [2 x i8] c" \00", align 1
@.str.200 = private unnamed_addr constant [47 x i8] c"# Java VM: %s%s%s (%s%s, %s%s%s%s%s%s, %s, %s)\00", align 1
@TieredCompilation = external global i8, align 1
@.str.201 = private unnamed_addr constant [9 x i8] c", tiered\00", align 1
@EnableJVMCI = external global i8, align 1
@.str.202 = private unnamed_addr constant [8 x i8] c", jvmci\00", align 1
@UseJVMCICompiler = external global i8, align 1
@.str.203 = private unnamed_addr constant [17 x i8] c", jvmci compiler\00", align 1
@.str.204 = private unnamed_addr constant [18 x i8] c", compressed oops\00", align 1
@.str.205 = private unnamed_addr constant [24 x i8] c", compressed class ptrs\00", align 1
@_ZN11JDK_Version8_currentE = external global %class.JDK_Version, align 4
@_ZN11JDK_Version13_runtime_nameE = external global ptr, align 8
@_ZN11JDK_Version16_runtime_versionE = external global ptr, align 8
@_ZN11JDK_Version23_runtime_vendor_versionE = external global ptr, align 8

; Function Attrs: mustprogress nounwind uwtable
define linkonce_odr hidden noundef ptr @_ZN11JDK_Version22runtime_vendor_versionEv() #1 comdat align 2 {
  %1 = load ptr, ptr @_ZN11JDK_Version23_runtime_vendor_versionE, align 8
  ret ptr %1
}

; Function Attrs: mustprogress nounwind uwtable
define linkonce_odr hidden noundef ptr @_ZN11JDK_Version15runtime_versionEv() #1 comdat align 2 {
  %1 = load ptr, ptr @_ZN11JDK_Version16_runtime_versionE, align 8
  ret ptr %1
}

; Function Attrs: mustprogress nounwind uwtable
define linkonce_odr hidden noundef ptr @_ZN11JDK_Version12runtime_nameEv() #1 comdat align 2 {
  %1 = load ptr, ptr @_ZN11JDK_Version13_runtime_nameE, align 8
  ret ptr %1
}

; Function Attrs: mustprogress nounwind uwtable
define linkonce_odr hidden void @_ZN11JDK_Version7currentEv(ptr dead_on_unwind noalias writable sret(%class.JDK_Version) align 4 %0) #1 comdat align 2 {
  call void @llvm.memcpy.p0.p0.i64(ptr align 4 %0, ptr align 4 @_ZN11JDK_Version8_currentE, i64 20, i1 false)
  ret void
}

; Function Attrs: mustprogress nounwind uwtable
define internal void @_ZL17report_vm_versionP12outputStreamPci(ptr noundef %0, ptr noundef %1, i32 noundef %2) #1 {
  %4 = alloca ptr, align 8
  %5 = alloca ptr, align 8
  %6 = alloca i32, align 4
  %7 = alloca %class.JDK_Version, align 4
  %8 = alloca ptr, align 8
  %9 = alloca ptr, align 8
  %10 = alloca ptr, align 8
  %11 = alloca ptr, align 8
  store ptr %0, ptr %4, align 8
  store ptr %1, ptr %5, align 8
  store i32 %2, ptr %6, align 4
  %12 = load ptr, ptr %4, align 8
  call void (ptr, ptr, ...) @_ZN12outputStream8print_crEPKcz(ptr noundef nonnull align 8 dereferenceable(56) %12, ptr noundef @.str.16)
  call void @_ZN11JDK_Version7currentEv(ptr dead_on_unwind writable sret(%class.JDK_Version) align 4 %7)
  %13 = load ptr, ptr %5, align 8
  %14 = load i32, ptr %6, align 4
  %15 = sext i32 %14 to i64
  call void @_ZNK11JDK_Version9to_stringEPcm(ptr noundef nonnull align 4 dereferenceable(20) %7, ptr noundef %13, i64 noundef %15)
  %16 = call noundef ptr @_ZN11JDK_Version12runtime_nameEv()
  %17 = icmp ne ptr %16, null
  br i1 %17, label %18, label %20

18:                                               ; preds = %3
  %19 = call noundef ptr @_ZN11JDK_Version12runtime_nameEv()
  br label %21

20:                                               ; preds = %3
  br label %21

21:                                               ; preds = %20, %18
  %22 = phi ptr [ %19, %18 ], [ @.str.142, %20 ]
  store ptr %22, ptr %8, align 8
  %23 = call noundef ptr @_ZN11JDK_Version15runtime_versionEv()
  %24 = icmp ne ptr %23, null
  br i1 %24, label %25, label %27

25:                                               ; preds = %21
  %26 = call noundef ptr @_ZN11JDK_Version15runtime_versionEv()
  br label %28

27:                                               ; preds = %21
  br label %28

28:                                               ; preds = %27, %25
  %29 = phi ptr [ %26, %25 ], [ @.str.142, %27 ]
  store ptr %29, ptr %9, align 8
  %30 = call noundef ptr @_ZN11JDK_Version22runtime_vendor_versionEv()
  %31 = icmp ne ptr %30, null
  br i1 %31, label %32, label %34

32:                                               ; preds = %28
  %33 = call noundef ptr @_ZN11JDK_Version22runtime_vendor_versionEv()
  br label %35

34:                                               ; preds = %28
  br label %35

35:                                               ; preds = %34, %32
  %36 = phi ptr [ %33, %32 ], [ @.str.142, %34 ]
  store ptr %36, ptr %10, align 8
  %37 = call noundef ptr @_ZN19Abstract_VM_Version25printable_jdk_debug_levelEv()
  %38 = icmp ne ptr %37, null
  br i1 %38, label %39, label %41

39:                                               ; preds = %35
  %40 = call noundef ptr @_ZN19Abstract_VM_Version25printable_jdk_debug_levelEv()
  br label %42

41:                                               ; preds = %35
  br label %42

42:                                               ; preds = %41, %39
  %43 = phi ptr [ %40, %39 ], [ @.str.142, %41 ]
  store ptr %43, ptr %11, align 8
  %44 = load ptr, ptr %4, align 8
  %45 = load ptr, ptr %8, align 8
  %46 = load ptr, ptr %10, align 8
  %47 = load i8, ptr %46, align 1
  %48 = sext i8 %47 to i32
  %49 = icmp ne i32 %48, 0
  %50 = select i1 %49, ptr @.str.199, ptr @.str.142
  %51 = load ptr, ptr %10, align 8
  %52 = load ptr, ptr %5, align 8
  %53 = load ptr, ptr %11, align 8
  %54 = load ptr, ptr %9, align 8
  call void (ptr, ptr, ...) @_ZN12outputStream8print_crEPKcz(ptr noundef nonnull align 8 dereferenceable(56) %44, ptr noundef @.str.198, ptr noundef %45, ptr noundef %50, ptr noundef %51, ptr noundef %52, ptr noundef %53, ptr noundef %54)
  %55 = load ptr, ptr %4, align 8
  %56 = call noundef ptr @_ZN19Abstract_VM_Version7vm_nameEv()
  %57 = load ptr, ptr %10, align 8
  %58 = load i8, ptr %57, align 1
  %59 = sext i8 %58 to i32
  %60 = icmp ne i32 %59, 0
  %61 = select i1 %60, ptr @.str.199, ptr @.str.142
  %62 = load ptr, ptr %10, align 8
  %63 = load ptr, ptr %11, align 8
  %64 = call noundef ptr @_ZN19Abstract_VM_Version10vm_releaseEv()
  %65 = call noundef ptr @_ZN19Abstract_VM_Version14vm_info_stringEv()
  %66 = load i8, ptr @TieredCompilation, align 1
  %67 = trunc i8 %66 to i1
  %68 = select i1 %67, ptr @.str.201, ptr @.str.142
  %69 = load i8, ptr @EnableJVMCI, align 1
  %70 = trunc i8 %69 to i1
  %71 = select i1 %70, ptr @.str.202, ptr @.str.142
  %72 = load i8, ptr @UseJVMCICompiler, align 1
  %73 = trunc i8 %72 to i1
  %74 = select i1 %73, ptr @.str.203, ptr @.str.142
  %75 = load i8, ptr @UseCompressedOops, align 1
  %76 = trunc i8 %75 to i1
  %77 = select i1 %76, ptr @.str.204, ptr @.str.142
  %78 = load i8, ptr @UseCompressedClassPointers, align 1
  %79 = trunc i8 %78 to i1
  %80 = select i1 %79, ptr @.str.205, ptr @.str.142
  %81 = call noundef ptr @_ZN8GCConfig11hs_err_nameEv()
  %82 = call noundef ptr @_ZN19Abstract_VM_Version18vm_platform_stringEv()
  call void (ptr, ptr, ...) @_ZN12outputStream8print_crEPKcz(ptr noundef nonnull align 8 dereferenceable(56) %55, ptr noundef @.str.200, ptr noundef %56, ptr noundef %61, ptr noundef %62, ptr noundef %63, ptr noundef %64, ptr noundef %65, ptr noundef %68, ptr noundef %71, ptr noundef %74, ptr noundef %77, ptr noundef %80, ptr noundef %81, ptr noundef %82)
  ret void
}