; Function Attrs: mustprogress nounwind uwtable
define internal fastcc void @_ZL17report_vm_versionP12outputStreamPci(ptr noundef nonnull %0, ptr noundef %1) unnamed_addr #0 {
  %3 = alloca %class.JDK_Version, align 4
  tail call void (ptr, ptr, ...) @_ZN12outputStream8print_crEPKcz(ptr noundef nonnull align 8 dereferenceable(56) %0, ptr noundef nonnull @.str.16) #21
  call void @llvm.memcpy.p0.p0.i64(ptr noundef nonnull align 4 dereferenceable(20) %3, ptr noundef nonnull align 4 dereferenceable(20) @_ZN11JDK_Version8_currentE, i64 20, i1 false)
  call void @_ZNK11JDK_Version9to_stringEPcm(ptr noundef nonnull align 4 dereferenceable(20) %3, ptr noundef %1, i64 noundef 2000) #21
  %4 = load ptr, ptr @_ZN11JDK_Version13_runtime_nameE, align 8
  %5 = load ptr, ptr @_ZN11JDK_Version16_runtime_versionE, align 8
  %6 = load ptr, ptr @_ZN11JDK_Version23_runtime_vendor_versionE, align 8
  %7 = call noundef ptr @_ZN19Abstract_VM_Version25printable_jdk_debug_levelEv() #21
  %.not15 = icmp eq ptr %7, null
  br i1 %.not15, label %10, label %8

8:                                                ; preds = %2
  %9 = call noundef ptr @_ZN19Abstract_VM_Version25printable_jdk_debug_levelEv() #21
  br label %10

10:                                               ; preds = %2, %8
  %11 = phi ptr [ %9, %8 ], [ @.str.142, %2 ]
  %.not14 = icmp eq ptr %6, null
  %12 = select i1 %.not14, ptr @.str.142, ptr %6
  %.not13 = icmp eq ptr %5, null
  %13 = select i1 %.not13, ptr @.str.142, ptr %5
  %.not = icmp eq ptr %4, null
  %spec.select = select i1 %.not, ptr @.str.142, ptr %4
  %14 = load i8, ptr %12, align 1
  %.not16 = icmp eq i8 %14, 0
  %15 = select i1 %.not16, ptr @.str.142, ptr @.str.199
  call void (ptr, ptr, ...) @_ZN12outputStream8print_crEPKcz(ptr noundef nonnull align 8 dereferenceable(56) %0, ptr noundef nonnull @.str.198, ptr noundef nonnull %spec.select, ptr noundef nonnull %15, ptr noundef nonnull %12, ptr noundef %1, ptr noundef %11, ptr noundef nonnull %13) #21
  %16 = call noundef ptr @_ZN19Abstract_VM_Version7vm_nameEv() #21
  %17 = load i8, ptr %12, align 1
  %.not17 = icmp eq i8 %17, 0
  %18 = select i1 %.not17, ptr @.str.142, ptr @.str.199
  %19 = call noundef ptr @_ZN19Abstract_VM_Version10vm_releaseEv() #21
  %20 = call noundef ptr @_ZN19Abstract_VM_Version14vm_info_stringEv() #21
  %21 = load i8, ptr @TieredCompilation, align 1
  %22 = trunc i8 %21 to i1
  %23 = select i1 %22, ptr @.str.201, ptr @.str.142
  %24 = load i8, ptr @EnableJVMCI, align 1
  %25 = trunc i8 %24 to i1
  %26 = select i1 %25, ptr @.str.202, ptr @.str.142
  %27 = load i8, ptr @UseJVMCICompiler, align 1
  %28 = trunc i8 %27 to i1
  %29 = select i1 %28, ptr @.str.203, ptr @.str.142
  %30 = load i8, ptr @UseCompressedOops, align 1
  %31 = trunc i8 %30 to i1
  %32 = select i1 %31, ptr @.str.204, ptr @.str.142
  %33 = load i8, ptr @UseCompressedClassPointers, align 1
  %34 = trunc i8 %33 to i1
  %35 = select i1 %34, ptr @.str.205, ptr @.str.142
  %36 = call noundef ptr @_ZN8GCConfig11hs_err_nameEv() #21
  %37 = call noundef ptr @_ZN19Abstract_VM_Version18vm_platform_stringEv() #21
  call void (ptr, ptr, ...) @_ZN12outputStream8print_crEPKcz(ptr noundef nonnull align 8 dereferenceable(56) %0, ptr noundef nonnull @.str.200, ptr noundef %16, ptr noundef nonnull %18, ptr noundef nonnull %12, ptr noundef %11, ptr noundef %19, ptr noundef %20, ptr noundef nonnull %23, ptr noundef nonnull %26, ptr noundef nonnull %29, ptr noundef nonnull %32, ptr noundef nonnull %35, ptr noundef %36, ptr noundef %37) #21
  ret void
}